target datalayout = "e-m:e-p270:32:32-p271:32:32-p272:64:64-i64:64-i128:128-f80:128-n8:16:32:64-S128"
target triple = "x86_64-unknown-linux-gnu"

%struct.tm = type { i32, i32, i32, i32, i32, i32, i32, i32, i32, i64, ptr }

; Function Attrs: mustprogress nounwind uwtable
define linkonce_odr noundef i32 @_ZNSt14numeric_limitsIiE3minEv() #2 comdat align 2 {
entry:
  ret i32 -2147483648
}

; Function Attrs: mustprogress nounwind uwtable
define linkonce_odr noundef i32 @_ZNSt14numeric_limitsIiE3maxEv() #2 comdat align 2 {
entry:
  ret i32 2147483647
}

; Function Attrs: mustprogress nounwind uwtable
define internal noundef i64 @_ZN8facebook5velox12_GLOBAL__N_116leapThroughEndOfEl(i64 noundef %y) #2 {
entry:
  %y.addr = alloca i64, align 8
  store i64 %y, ptr %y.addr, align 8
  %0 = load i64, ptr %y.addr, align 8
  %add = add nsw i64 %0, 4000000000
  store i64 %add, ptr %y.addr, align 8
  %1 = load i64, ptr %y.addr, align 8
  %div = sdiv i64 %1, 4
  %2 = load i64, ptr %y.addr, align 8
  %div1 = sdiv i64 %2, 100
  %sub = sub nsw i64 %div, %div1
  %3 = load i64, ptr %y.addr, align 8
  %div2 = sdiv i64 %3, 400
  %add3 = add nsw i64 %sub, %div2
  ret i64 %add3
}

; Function Attrs: mustprogress nounwind uwtable
define internal noundef zeroext i1 @_ZN8facebook5velox12_GLOBAL__N_16isLeapEl(i64 noundef %y) #2 {
entry:
  %y.addr = alloca i64, align 8
  store i64 %y, ptr %y.addr, align 8
  %0 = load i64, ptr %y.addr, align 8
  %rem = srem i64 %0, 4
  %cmp = icmp eq i64 %rem, 0
  br i1 %cmp, label %land.rhs, label %land.end

land.rhs:                                         ; preds = %entry
  %1 = load i64, ptr %y.addr, align 8
  %rem1 = srem i64 %1, 100
  %cmp2 = icmp ne i64 %rem1, 0
  br i1 %cmp2, label %lor.end, label %lor.rhs

lor.rhs:                                          ; preds = %land.rhs
  %2 = load i64, ptr %y.addr, align 8
  %rem3 = srem i64 %2, 400
  %cmp4 = icmp eq i64 %rem3, 0
  br label %lor.end

lor.end:                                          ; preds = %lor.rhs, %land.rhs
  %3 = phi i1 [ true, %land.rhs ], [ %cmp4, %lor.rhs ]
  br label %land.end

land.end:                                         ; preds = %lor.end, %entry
  %4 = phi i1 [ false, %entry ], [ %3, %lor.end ]
  ret i1 %4
}

; Function Attrs: mustprogress uwtable
define noundef zeroext i1 @_ZN8facebook5velox9Timestamp10epochToUtcElR2tm(i64 noundef %epoch, ptr noundef nonnull align 8 dereferenceable(56) %tm) #0 align 2 {
entry:
  %retval = alloca i1, align 1
  %epoch.addr = alloca i64, align 8
  %tm.addr = alloca ptr, align 8
  %kSecondsPerHour = alloca i32, align 4
  %kSecondsPerDay = alloca i32, align 4
  %kDaysPerYear = alloca i32, align 4
  %days = alloca i64, align 8
  %rem = alloca i64, align 8
  %y = alloca i64, align 8
  %leapYear = alloca i8, align 1
  %newy = alloca i64, align 8
  %ip = alloca ptr, align 8
  store i64 %epoch, ptr %epoch.addr, align 8
  store ptr %tm, ptr %tm.addr, align 8
  store i32 3600, ptr %kSecondsPerHour, align 4
  store i32 86400, ptr %kSecondsPerDay, align 4
  store i32 365, ptr %kDaysPerYear, align 4
  %0 = load i64, ptr %epoch.addr, align 8
  %div = sdiv i64 %0, 86400
  store i64 %div, ptr %days, align 8
  %1 = load i64, ptr %epoch.addr, align 8
  %rem1 = srem i64 %1, 86400
  store i64 %rem1, ptr %rem, align 8
  br label %while.cond

while.cond:                                       ; preds = %while.body, %entry
  %2 = load i64, ptr %rem, align 8
  %cmp = icmp slt i64 %2, 0
  br i1 %cmp, label %while.body, label %while.end

while.body:                                       ; preds = %while.cond
  %3 = load i64, ptr %rem, align 8
  %add = add nsw i64 %3, 86400
  store i64 %add, ptr %rem, align 8
  %4 = load i64, ptr %days, align 8
  %dec = add nsw i64 %4, -1
  store i64 %dec, ptr %days, align 8
  br label %while.cond, !llvm.loop !4

while.end:                                        ; preds = %while.cond
  %5 = load i64, ptr %rem, align 8
  %div2 = sdiv i64 %5, 3600
  %conv = trunc i64 %div2 to i32
  %6 = load ptr, ptr %tm.addr, align 8
  %tm_hour = getelementptr inbounds %struct.tm, ptr %6, i32 0, i32 2
  store i32 %conv, ptr %tm_hour, align 8
  %7 = load i64, ptr %rem, align 8
  %rem3 = srem i64 %7, 3600
  store i64 %rem3, ptr %rem, align 8
  %8 = load i64, ptr %rem, align 8
  %div4 = sdiv i64 %8, 60
  %conv5 = trunc i64 %div4 to i32
  %9 = load ptr, ptr %tm.addr, align 8
  %tm_min = getelementptr inbounds %struct.tm, ptr %9, i32 0, i32 1
  store i32 %conv5, ptr %tm_min, align 4
  %10 = load i64, ptr %rem, align 8
  %rem6 = srem i64 %10, 60
  %conv7 = trunc i64 %rem6 to i32
  %11 = load ptr, ptr %tm.addr, align 8
  %tm_sec = getelementptr inbounds %struct.tm, ptr %11, i32 0, i32 0
  store i32 %conv7, ptr %tm_sec, align 8
  %12 = load i64, ptr %days, align 8
  %add8 = add nsw i64 4, %12
  %rem9 = srem i64 %add8, 7
  %conv10 = trunc i64 %rem9 to i32
  %13 = load ptr, ptr %tm.addr, align 8
  %tm_wday = getelementptr inbounds %struct.tm, ptr %13, i32 0, i32 6
  store i32 %conv10, ptr %tm_wday, align 8
  %14 = load ptr, ptr %tm.addr, align 8
  %tm_wday11 = getelementptr inbounds %struct.tm, ptr %14, i32 0, i32 6
  %15 = load i32, ptr %tm_wday11, align 8
  %cmp12 = icmp slt i32 %15, 0
  br i1 %cmp12, label %if.then, label %if.end

if.then:                                          ; preds = %while.end
  %16 = load ptr, ptr %tm.addr, align 8
  %tm_wday13 = getelementptr inbounds %struct.tm, ptr %16, i32 0, i32 6
  %17 = load i32, ptr %tm_wday13, align 8
  %add14 = add nsw i32 %17, 7
  store i32 %add14, ptr %tm_wday13, align 8
  br label %if.end

if.end:                                           ; preds = %if.then, %while.end
  store i64 1970, ptr %y, align 8
  %18 = load i64, ptr %y, align 8
  %19 = load i64, ptr %days, align 8
  %div15 = sdiv i64 %19, 365
  %add16 = add nsw i64 %18, %div15
  %cmp17 = icmp sle i64 %add16, -3999999990
  br i1 %cmp17, label %if.then18, label %if.end19

if.then18:                                        ; preds = %if.end
  store i1 false, ptr %retval, align 1
  br label %return

if.end19:                                         ; preds = %if.end
  br label %while.cond20

while.cond20:                                     ; preds = %while.body26, %if.end19
  %20 = load i64, ptr %days, align 8
  %cmp21 = icmp slt i64 %20, 0
  br i1 %cmp21, label %lor.end, label %lor.rhs

lor.rhs:                                          ; preds = %while.cond20
  %21 = load i64, ptr %days, align 8
  %22 = load i64, ptr %y, align 8
  %call = call noundef zeroext i1 @_ZN8facebook5velox12_GLOBAL__N_16isLeapEl(i64 noundef %22)
  %frombool = zext i1 %call to i8
  store i8 %frombool, ptr %leapYear, align 1
  %conv22 = zext i1 %call to i32
  %add23 = add nsw i32 365, %conv22
  %conv24 = sext i32 %add23 to i64
  %cmp25 = icmp sge i64 %21, %conv24
  br label %lor.end

lor.end:                                          ; preds = %lor.rhs, %while.cond20
  %23 = phi i1 [ true, %while.cond20 ], [ %cmp25, %lor.rhs ]
  br i1 %23, label %while.body26, label %while.end39

while.body26:                                     ; preds = %lor.end
  %24 = load i64, ptr %y, align 8
  %25 = load i64, ptr %days, align 8
  %div27 = sdiv i64 %25, 365
  %add28 = add nsw i64 %24, %div27
  %26 = load i64, ptr %days, align 8
  %cmp29 = icmp slt i64 %26, 0
  %conv30 = zext i1 %cmp29 to i64
  %sub = sub nsw i64 %add28, %conv30
  store i64 %sub, ptr %newy, align 8
  %27 = load i64, ptr %newy, align 8
  %28 = load i64, ptr %y, align 8
  %sub31 = sub nsw i64 %27, %28
  %mul = mul nsw i64 %sub31, 365
  %29 = load i64, ptr %newy, align 8
  %sub32 = sub nsw i64 %29, 1
  %call33 = call noundef i64 @_ZN8facebook5velox12_GLOBAL__N_116leapThroughEndOfEl(i64 noundef %sub32)
  %add34 = add nsw i64 %mul, %call33
  %30 = load i64, ptr %y, align 8
  %sub35 = sub nsw i64 %30, 1
  %call36 = call noundef i64 @_ZN8facebook5velox12_GLOBAL__N_116leapThroughEndOfEl(i64 noundef %sub35)
  %sub37 = sub nsw i64 %add34, %call36
  %31 = load i64, ptr %days, align 8
  %sub38 = sub nsw i64 %31, %sub37
  store i64 %sub38, ptr %days, align 8
  %32 = load i64, ptr %newy, align 8
  store i64 %32, ptr %y, align 8
  br label %while.cond20, !llvm.loop !6

while.end39:                                      ; preds = %lor.end
  %33 = load i64, ptr %y, align 8
  %sub40 = sub nsw i64 %33, 1900
  store i64 %sub40, ptr %y, align 8
  %34 = load i64, ptr %y, align 8
  %call41 = call noundef i32 @_ZNSt14numeric_limitsIiE3maxEv() #10
  %conv42 = sext i32 %call41 to i64
  %cmp43 = icmp sgt i64 %34, %conv42
  br i1 %cmp43, label %if.then47, label %lor.lhs.false

lor.lhs.false:                                    ; preds = %while.end39
  %35 = load i64, ptr %y, align 8
  %call44 = call noundef i32 @_ZNSt14numeric_limitsIiE3minEv() #10
  %conv45 = sext i32 %call44 to i64
  %cmp46 = icmp slt i64 %35, %conv45
  br i1 %cmp46, label %if.then47, label %if.end48

if.then47:                                        ; preds = %lor.lhs.false, %while.end39
  store i1 false, ptr %retval, align 1
  br label %return

if.end48:                                         ; preds = %lor.lhs.false
  %36 = load i64, ptr %y, align 8
  %conv49 = trunc i64 %36 to i32
  %37 = load ptr, ptr %tm.addr, align 8
  %tm_year = getelementptr inbounds %struct.tm, ptr %37, i32 0, i32 5
  store i32 %conv49, ptr %tm_year, align 4
  %38 = load i64, ptr %days, align 8
  %conv50 = trunc i64 %38 to i32
  %39 = load ptr, ptr %tm.addr, align 8
  %tm_yday = getelementptr inbounds %struct.tm, ptr %39, i32 0, i32 7
  store i32 %conv50, ptr %tm_yday, align 4
  %40 = load i8, ptr %leapYear, align 1
  %tobool = trunc i8 %40 to i1
  %idxprom = zext i1 %tobool to i64
  %arrayidx = getelementptr inbounds [2 x [12 x i32]], ptr @_ZN8facebook5velox12_GLOBAL__N_112monthLengthsE, i64 0, i64 %idxprom
  %arraydecay = getelementptr inbounds [12 x i32], ptr %arrayidx, i64 0, i64 0
  store ptr %arraydecay, ptr %ip, align 8
  %41 = load ptr, ptr %tm.addr, align 8
  %tm_mon = getelementptr inbounds %struct.tm, ptr %41, i32 0, i32 4
  store i32 0, ptr %tm_mon, align 8
  br label %for.cond

for.cond:                                         ; preds = %for.inc, %if.end48
  %42 = load i64, ptr %days, align 8
  %43 = load ptr, ptr %ip, align 8
  %44 = load ptr, ptr %tm.addr, align 8
  %tm_mon51 = getelementptr inbounds %struct.tm, ptr %44, i32 0, i32 4
  %45 = load i32, ptr %tm_mon51, align 8
  %idxprom52 = sext i32 %45 to i64
  %arrayidx53 = getelementptr inbounds i32, ptr %43, i64 %idxprom52
  %46 = load i32, ptr %arrayidx53, align 4
  %conv54 = sext i32 %46 to i64
  %cmp55 = icmp sge i64 %42, %conv54
  br i1 %cmp55, label %for.body, label %for.end

for.body:                                         ; preds = %for.cond
  %47 = load i64, ptr %days, align 8
  %48 = load ptr, ptr %ip, align 8
  %49 = load ptr, ptr %tm.addr, align 8
  %tm_mon56 = getelementptr inbounds %struct.tm, ptr %49, i32 0, i32 4
  %50 = load i32, ptr %tm_mon56, align 8
  %idxprom57 = sext i32 %50 to i64
  %arrayidx58 = getelementptr inbounds i32, ptr %48, i64 %idxprom57
  %51 = load i32, ptr %arrayidx58, align 4
  %conv59 = sext i32 %51 to i64
  %sub60 = sub nsw i64 %47, %conv59
  store i64 %sub60, ptr %days, align 8
  br label %for.inc

for.inc:                                          ; preds = %for.body
  %52 = load ptr, ptr %tm.addr, align 8
  %tm_mon61 = getelementptr inbounds %struct.tm, ptr %52, i32 0, i32 4
  %53 = load i32, ptr %tm_mon61, align 8
  %inc = add nsw i32 %53, 1
  store i32 %inc, ptr %tm_mon61, align 8
  br label %for.cond, !llvm.loop !7

for.end:                                          ; preds = %for.cond
  %54 = load i64, ptr %days, align 8
  %add62 = add nsw i64 %54, 1
  %conv63 = trunc i64 %add62 to i32
  %55 = load ptr, ptr %tm.addr, align 8
  %tm_mday = getelementptr inbounds %struct.tm, ptr %55, i32 0, i32 3
  store i32 %conv63, ptr %tm_mday, align 4
  %56 = load ptr, ptr %tm.addr, align 8
  %tm_isdst = getelementptr inbounds %struct.tm, ptr %56, i32 0, i32 8
  store i32 0, ptr %tm_isdst, align 8
  store i1 true, ptr %retval, align 1
  br label %return

return:                                           ; preds = %for.end, %if.then47, %if.then18
  %57 = load i1, ptr %retval, align 1
  ret i1 %57
}